#include <math.h>
#include <stdio.h>
#include <stdlib.h>
#include <string.h>

int main()
{
	int row,col,i,j,k,a;
	int array[100][100];
	scanf("%d%d",&row,&col);
	for(i=0;i<row;i++)
	{
		for(j=0;j<col;j++)
			scanf("%d",&array[i][j]);
	}
	k=row+col;
	for(a=0;a<k-1;a++)
	{
		for(i=0;i<=a;i++)
			if(i<row&&(a-i)<col)
				printf("%d\n",array[i][a-i]);
			else if(i>=row) i++;
	}
	return 0;
}
